target datalayout = "e-m:e-p270:32:32-p271:32:32-p272:64:64-i64:64-i128:128-f80:128-n8:16:32:64-S128"
target triple = "x86_64-pc-linux-gnu"

%"class.std::basic_ostream" = type { ptr, %"class.std::basic_ios" }
%"class.std::basic_ios" = type { %"class.std::ios_base", ptr, i8, i8, ptr, ptr, ptr, ptr }
%"class.std::ios_base" = type { ptr, i64, i64, i32, i32, i32, ptr, %"struct.std::ios_base::_Words", [8 x %"struct.std::ios_base::_Words"], i32, ptr, %"class.std::locale" }
%"struct.std::ios_base::_Words" = type { ptr, i64 }
%"class.std::locale" = type { ptr }

@_ZSt4cout = external global %"class.std::basic_ostream", align 8
@.str = private unnamed_addr constant [41 x i8] c"Error in tiny_codegen: solver is nullptr\00", align 1
@.str.4 = private unnamed_addr constant [8 x i8] c"%s/src/\00", align 1
@.str.5 = private unnamed_addr constant [12 x i8] c"%s/tinympc/\00", align 1

; Function Attrs: inlinehint mustprogress nounwind uwtable
define linkonce_odr noundef i32 @_ZStorSt12_Ios_IostateS_(i32 noundef %0, i32 noundef %1) #10 comdat {
  %3 = alloca i32, align 4
  %4 = alloca i32, align 4
  store i32 %0, ptr %3, align 4, !tbaa !137
  store i32 %1, ptr %4, align 4, !tbaa !137
  %5 = load i32, ptr %3, align 4, !tbaa !137
  %6 = load i32, ptr %4, align 4, !tbaa !137
  %7 = or i32 %5, %6
  ret i32 %7
}

; Function Attrs: mustprogress nounwind uwtable
define available_externally noundef i32 @_ZNKSt9basic_iosIcSt11char_traitsIcEE7rdstateEv(ptr noundef nonnull align 8 dereferenceable(264) %0) #4 align 2 {
  %2 = alloca ptr, align 8
  store ptr %0, ptr %2, align 8, !tbaa !135
  %3 = load ptr, ptr %2, align 8
  %4 = getelementptr inbounds nuw %"class.std::ios_base", ptr %3, i32 0, i32 5
  %5 = load i32, ptr %4, align 8, !tbaa !139
  ret i32 %5
}

; Function Attrs: mustprogress nounwind uwtable
define linkonce_odr noundef i64 @_ZNSt11char_traitsIcE6lengthEPKc(ptr noundef %0) #4 comdat align 2 {
  %2 = alloca ptr, align 8
  store ptr %0, ptr %2, align 8, !tbaa !15
  %3 = load ptr, ptr %2, align 8, !tbaa !15
  %4 = call i64 @strlen(ptr noundef %3) #3
  ret i64 %4
}

; Function Attrs: mustprogress uwtable
define available_externally void @_ZNSt9basic_iosIcSt11char_traitsIcEE8setstateESt12_Ios_Iostate(ptr noundef nonnull align 8 dereferenceable(264) %0, i32 noundef %1) #6 align 2 {
  %3 = alloca ptr, align 8
  %4 = alloca i32, align 4
  store ptr %0, ptr %3, align 8, !tbaa !135
  store i32 %1, ptr %4, align 4, !tbaa !137
  %5 = load ptr, ptr %3, align 8
  %6 = call noundef i32 @_ZNKSt9basic_iosIcSt11char_traitsIcEE7rdstateEv(ptr noundef nonnull align 8 dereferenceable(264) %5)
  %7 = load i32, ptr %4, align 4, !tbaa !137
  %8 = call noundef i32 @_ZStorSt12_Ios_IostateS_(i32 noundef %6, i32 noundef %7)
  call void @_ZNSt9basic_iosIcSt11char_traitsIcEE5clearESt12_Ios_Iostate(ptr noundef nonnull align 8 dereferenceable(264) %5, i32 noundef %8)
  ret void
}

; Function Attrs: mustprogress uwtable
define i32 @codegen_create_directories(ptr noundef %0, i32 noundef %1) #6 {
  %3 = alloca ptr, align 8
  %4 = alloca i32, align 4
  %5 = alloca [2048 x i8], align 16
  %6 = alloca [2048 x i8], align 16
  store ptr %0, ptr %3, align 8, !tbaa !15
  store i32 %1, ptr %4, align 4, !tbaa !17
  %7 = load ptr, ptr %3, align 8, !tbaa !15
  %8 = load i32, ptr %4, align 4, !tbaa !17
  call void @_ZL16create_directoryPKci(ptr noundef %7, i32 noundef %8)
  call void @llvm.lifetime.start.p0(i64 2048, ptr %5) #3
  %9 = getelementptr inbounds [2048 x i8], ptr %5, i64 0, i64 0
  %10 = load ptr, ptr %3, align 8, !tbaa !15
  %11 = call i32 (ptr, ptr, ...) @sprintf(ptr noundef %9, ptr noundef @.str.4, ptr noundef %10) #3
  %12 = getelementptr inbounds [2048 x i8], ptr %5, i64 0, i64 0
  %13 = load i32, ptr %4, align 4, !tbaa !17
  call void @_ZL16create_directoryPKci(ptr noundef %12, i32 noundef %13)
  call void @llvm.lifetime.start.p0(i64 2048, ptr %6) #3
  %14 = getelementptr inbounds [2048 x i8], ptr %6, i64 0, i64 0
  %15 = load ptr, ptr %3, align 8, !tbaa !15
  %16 = call i32 (ptr, ptr, ...) @sprintf(ptr noundef %14, ptr noundef @.str.5, ptr noundef %15) #3
  %17 = getelementptr inbounds [2048 x i8], ptr %6, i64 0, i64 0
  %18 = load i32, ptr %4, align 4, !tbaa !17
  call void @_ZL16create_directoryPKci(ptr noundef %17, i32 noundef %18)
  call void @llvm.lifetime.end.p0(i64 2048, ptr %6) #3
  call void @llvm.lifetime.end.p0(i64 2048, ptr %5) #3
  ret i32 0
}

; Function Attrs: mustprogress uwtable
define available_externally noundef nonnull align 8 dereferenceable(8) ptr @_ZNSolsEPFRSoS_E(ptr noundef nonnull align 8 dereferenceable(8) %0, ptr noundef %1) #6 align 2 {
  %3 = alloca ptr, align 8
  %4 = alloca ptr, align 8
  store ptr %0, ptr %3, align 8, !tbaa !19
  store ptr %1, ptr %4, align 8, !tbaa !14
  %5 = load ptr, ptr %3, align 8
  %6 = load ptr, ptr %4, align 8, !tbaa !14
  %7 = call noundef nonnull align 8 dereferenceable(8) ptr %6(ptr noundef nonnull align 8 dereferenceable(8) %5)
  ret ptr %7
}

; Function Attrs: inlinehint mustprogress uwtable
define available_externally noundef nonnull align 8 dereferenceable(8) ptr @_ZStlsISt11char_traitsIcEERSt13basic_ostreamIcT_ES5_PKc(ptr noundef nonnull align 8 dereferenceable(8) %0, ptr noundef %1) #7 {
  %3 = alloca ptr, align 8
  %4 = alloca ptr, align 8
  store ptr %0, ptr %3, align 8, !tbaa !19
  store ptr %1, ptr %4, align 8, !tbaa !15
  %5 = load ptr, ptr %4, align 8, !tbaa !15
  %6 = icmp ne ptr %5, null
  br i1 %6, label %13, label %7

7:                                                ; preds = %2
  %8 = load ptr, ptr %3, align 8, !tbaa !19
  %9 = load ptr, ptr %8, align 8, !tbaa !21
  %10 = getelementptr i8, ptr %9, i64 -24
  %11 = load i64, ptr %10, align 8
  %12 = getelementptr inbounds i8, ptr %8, i64 %11
  call void @_ZNSt9basic_iosIcSt11char_traitsIcEE8setstateESt12_Ios_Iostate(ptr noundef nonnull align 8 dereferenceable(264) %12, i32 noundef 1)
  br label %19

13:                                               ; preds = %2
  %14 = load ptr, ptr %3, align 8, !tbaa !19
  %15 = load ptr, ptr %4, align 8, !tbaa !15
  %16 = load ptr, ptr %4, align 8, !tbaa !15
  %17 = call noundef i64 @_ZNSt11char_traitsIcE6lengthEPKc(ptr noundef %16)
  %18 = call noundef nonnull align 8 dereferenceable(8) ptr @_ZSt16__ostream_insertIcSt11char_traitsIcEERSt13basic_ostreamIT_T0_ES6_PKS3_l(ptr noundef nonnull align 8 dereferenceable(8) %14, ptr noundef %15, i64 noundef %17)
  br label %19

19:                                               ; preds = %13, %7
  %20 = load ptr, ptr %3, align 8, !tbaa !19
  ret ptr %20
}

; Function Attrs: mustprogress uwtable
define i32 @tiny_codegen(ptr noundef %0, ptr noundef %1, i32 noundef %2) #6 {
  %4 = alloca i32, align 4
  %5 = alloca ptr, align 8
  %6 = alloca ptr, align 8
  %7 = alloca i32, align 4
  %8 = alloca i32, align 4
  store ptr %0, ptr %5, align 8, !tbaa !14
  store ptr %1, ptr %6, align 8, !tbaa !15
  store i32 %2, ptr %7, align 4, !tbaa !17
  %9 = load ptr, ptr %5, align 8, !tbaa !14
  %10 = icmp ne ptr %9, null
  br i1 %10, label %14, label %11

11:                                               ; preds = %3
  %12 = call noundef nonnull align 8 dereferenceable(8) ptr @_ZStlsISt11char_traitsIcEERSt13basic_ostreamIcT_ES5_PKc(ptr noundef nonnull align 8 dereferenceable(8) @_ZSt4cout, ptr noundef @.str)
  %13 = call noundef nonnull align 8 dereferenceable(8) ptr @_ZNSolsEPFRSoS_E(ptr noundef nonnull align 8 dereferenceable(8) %12, ptr noundef @_ZSt4endlIcSt11char_traitsIcEERSt13basic_ostreamIT_T0_ES6_)
  store i32 1, ptr %4, align 4
  br label %37

14:                                               ; preds = %3
  call void @llvm.lifetime.start.p0(i64 4, ptr %8) #3
  store i32 0, ptr %8, align 4, !tbaa !17
  %15 = load ptr, ptr %6, align 8, !tbaa !15
  %16 = load i32, ptr %7, align 4, !tbaa !17
  %17 = call i32 @codegen_create_directories(ptr noundef %15, i32 noundef %16)
  %18 = load i32, ptr %8, align 4, !tbaa !17
  %19 = or i32 %18, %17
  store i32 %19, ptr %8, align 4, !tbaa !17
  %20 = load ptr, ptr %6, align 8, !tbaa !15
  %21 = load i32, ptr %7, align 4, !tbaa !17
  %22 = call i32 @codegen_data_header(ptr noundef %20, i32 noundef %21)
  %23 = load i32, ptr %8, align 4, !tbaa !17
  %24 = or i32 %23, %22
  store i32 %24, ptr %8, align 4, !tbaa !17
  %25 = load ptr, ptr %5, align 8, !tbaa !14
  %26 = load ptr, ptr %6, align 8, !tbaa !15
  %27 = load i32, ptr %7, align 4, !tbaa !17
  %28 = call i32 @codegen_data_source(ptr noundef %25, ptr noundef %26, i32 noundef %27)
  %29 = load i32, ptr %8, align 4, !tbaa !17
  %30 = or i32 %29, %28
  store i32 %30, ptr %8, align 4, !tbaa !17
  %31 = load ptr, ptr %6, align 8, !tbaa !15
  %32 = load i32, ptr %7, align 4, !tbaa !17
  %33 = call i32 @codegen_example(ptr noundef %31, i32 noundef %32)
  %34 = load i32, ptr %8, align 4, !tbaa !17
  %35 = or i32 %34, %33
  store i32 %35, ptr %8, align 4, !tbaa !17
  %36 = load i32, ptr %8, align 4, !tbaa !17
  store i32 %36, ptr %4, align 4
  call void @llvm.lifetime.end.p0(i64 4, ptr %8) #3
  br label %37

37:                                               ; preds = %14, %11
  %38 = load i32, ptr %4, align 4
  ret i32 %38
}