; Function Attrs: mustprogress uwtable
define range(i32 0, 2) i32 @tiny_codegen(ptr noundef readonly captures(address_is_null) %0, ptr noundef %1, i32 noundef %2) local_unnamed_addr #4 {
  %4 = alloca [2048 x i8], align 16
  %5 = alloca [2048 x i8], align 16
  %.not = icmp eq ptr %0, null
  br i1 %.not, label %6, label %27

6:                                                ; preds = %3
  %7 = tail call noundef nonnull align 8 dereferenceable(8) ptr @_ZSt16__ostream_insertIcSt11char_traitsIcEERSt13basic_ostreamIT_T0_ES6_PKS3_l(ptr noundef nonnull align 8 dereferenceable(8) @_ZSt4cout, ptr noundef nonnull @.str, i64 noundef 40)
  %8 = load ptr, ptr @_ZSt4cout, align 8, !tbaa !3
  %9 = getelementptr i8, ptr %8, i64 -24
  %10 = load i64, ptr %9, align 8
  %11 = getelementptr inbounds i8, ptr @_ZSt4cout, i64 %10
  %12 = getelementptr inbounds nuw i8, ptr %11, i64 240
  %13 = load ptr, ptr %12, align 8, !tbaa !6
  %.not.i.i.i = icmp eq ptr %13, null
  br i1 %.not.i.i.i, label %14, label %_ZSt13__check_facetISt5ctypeIcEERKT_PS3_.exit.i.i

14:                                               ; preds = %6
  tail call void @_ZSt16__throw_bad_castv() #20
  unreachable

_ZSt13__check_facetISt5ctypeIcEERKT_PS3_.exit.i.i: ; preds = %6
  %15 = getelementptr inbounds nuw i8, ptr %13, i64 56
  %16 = load i8, ptr %15, align 8, !tbaa !26
  %.not.i1.i.i = icmp eq i8 %16, 0
  br i1 %.not.i1.i.i, label %20, label %17

17:                                               ; preds = %_ZSt13__check_facetISt5ctypeIcEERKT_PS3_.exit.i.i
  %18 = getelementptr inbounds nuw i8, ptr %13, i64 67
  %19 = load i8, ptr %18, align 1, !tbaa !32
  br label %_ZSt4endlIcSt11char_traitsIcEERSt13basic_ostreamIT_T0_ES6_.exit

20:                                               ; preds = %_ZSt13__check_facetISt5ctypeIcEERKT_PS3_.exit.i.i
  tail call void @_ZNKSt5ctypeIcE13_M_widen_initEv(ptr noundef nonnull align 8 dereferenceable(570) %13)
  %21 = load ptr, ptr %13, align 8, !tbaa !3
  %22 = getelementptr inbounds nuw i8, ptr %21, i64 48
  %23 = load ptr, ptr %22, align 8
  %24 = tail call noundef signext i8 %23(ptr noundef nonnull align 8 dereferenceable(570) %13, i8 noundef signext 10)
  br label %_ZSt4endlIcSt11char_traitsIcEERSt13basic_ostreamIT_T0_ES6_.exit

_ZSt4endlIcSt11char_traitsIcEERSt13basic_ostreamIT_T0_ES6_.exit: ; preds = %17, %20
  %.0.i.i.i = phi i8 [ %19, %17 ], [ %24, %20 ]
  %25 = tail call noundef nonnull align 8 dereferenceable(8) ptr @_ZNSo3putEc(ptr noundef nonnull align 8 dereferenceable(8) @_ZSt4cout, i8 noundef signext %.0.i.i.i)
  %26 = tail call noundef nonnull align 8 dereferenceable(8) ptr @_ZNSo5flushEv(ptr noundef nonnull align 8 dereferenceable(8) %25)
  br label %33

27:                                               ; preds = %3
  tail call fastcc void @_ZL16create_directoryPKci(ptr noundef %1, i32 noundef %2)
  call void @llvm.lifetime.start.p0(i64 2048, ptr nonnull %4) #21
  %28 = call i32 (ptr, ptr, ...) @sprintf(ptr noundef nonnull dereferenceable(1) %4, ptr noundef nonnull dereferenceable(1) @.str.4, ptr noundef %1) #21
  call fastcc void @_ZL16create_directoryPKci(ptr noundef nonnull %4, i32 noundef %2)
  call void @llvm.lifetime.start.p0(i64 2048, ptr nonnull %5) #21
  %29 = call i32 (ptr, ptr, ...) @sprintf(ptr noundef nonnull dereferenceable(1) %5, ptr noundef nonnull dereferenceable(1) @.str.5, ptr noundef %1) #21
  call fastcc void @_ZL16create_directoryPKci(ptr noundef nonnull %5, i32 noundef %2)
  call void @llvm.lifetime.end.p0(i64 2048, ptr nonnull %5) #21
  call void @llvm.lifetime.end.p0(i64 2048, ptr nonnull %4) #21
  %30 = call i32 @codegen_data_header(ptr noundef %1, i32 noundef %2)
  %31 = call i32 @codegen_data_source(ptr noundef nonnull %0, ptr noundef %1, i32 noundef %2)
  %32 = call i32 @codegen_example(ptr noundef %1, i32 noundef %2)
  br label %33

33:                                               ; preds = %27, %_ZSt4endlIcSt11char_traitsIcEERSt13basic_ostreamIT_T0_ES6_.exit
  %.0 = phi i32 [ 0, %27 ], [ 1, %_ZSt4endlIcSt11char_traitsIcEERSt13basic_ostreamIT_T0_ES6_.exit ]
  ret i32 %.0
}